target datalayout = "e-m:e-p270:32:32-p271:32:32-p272:64:64-i64:64-i128:128-f80:128-n8:16:32:64-S128"
target triple = "x86_64-pc-linux-gnu"

%"class.std::__cxx11::basic_string" = type { %"struct.std::__cxx11::basic_string<char>::_Alloc_hider", i64, %union.anon }
%"struct.std::__cxx11::basic_string<char>::_Alloc_hider" = type { ptr }
%union.anon = type { i64, [8 x i8] }
%class.DfgVertex = type { ptr, %class.V3ListLinks, ptr, ptr, ptr, ptr, %class.VDfgType, i32, ptr }
%class.V3ListLinks = type { ptr, ptr }
%class.VDfgType = type { i16 }
%class.anon.155 = type { ptr }
%class.DfgVertexVar = type <{ %class.DfgVertexVariadic, ptr, i8, i8, i8, [5 x i8] }>
%class.DfgVertexVariadic = type { %class.DfgVertex, ptr, i32, i32 }
%class.AstVar = type <{ %class.AstNode, %"class.std::__cxx11::basic_string", %"class.std::__cxx11::basic_string", %"class.std::__cxx11::basic_string", %class.VVarType, %class.VDirection, %class.VDirection, %class.VLifetime, %class.VVarAttrClocker, [3 x i8], i32, i48, [4 x i8], ptr }>
%class.AstNode = type { ptr, ptr, ptr, ptr, ptr, ptr, ptr, ptr, %class.VNType, %struct.anon, i8, i32, ptr, ptr, ptr, ptr, %class.VNUser, i32, i32, %class.VNUser, %class.VNUser, i32, i32, %class.VNUser }
%class.VNType = type { i16 }
%struct.anon = type { i8 }
%class.VNUser = type { %union.anon.154 }
%union.anon.154 = type { ptr }
%class.VVarType = type { i8 }
%class.VDirection = type { i8 }
%class.VLifetime = type { i8 }
%class.VVarAttrClocker = type { i8 }
%class.DfgEdge = type { ptr, ptr, ptr, ptr }

; Function Attrs: mustprogress nounwind uwtable
define linkonce_odr dso_local noundef zeroext i1 @_Zeq8VDfgTypeNS_2enE(i16 %0, i16 noundef zeroext %1) #4 comdat {
  %3 = alloca %class.VDfgType, align 2
  %4 = alloca i16, align 2
  %5 = getelementptr inbounds %class.VDfgType, ptr %3, i32 0, i32 0
  store i16 %0, ptr %5, align 2
  store i16 %1, ptr %4, align 2
  %6 = getelementptr inbounds %class.VDfgType, ptr %3, i32 0, i32 0
  %7 = load i16, ptr %6, align 2
  %8 = zext i16 %7 to i32
  %9 = load i16, ptr %4, align 2
  %10 = zext i16 %9 to i32
  %11 = icmp eq i32 %8, %10
  ret i1 %11
}

; Function Attrs: mustprogress nounwind uwtable
define linkonce_odr dso_local i16 @_ZNK9DfgVertex4typeEv(ptr noundef nonnull align 8 dereferenceable(72) %0) #4 comdat align 2 {
  %2 = alloca %class.VDfgType, align 2
  %3 = alloca ptr, align 8
  store ptr %0, ptr %3, align 8
  %4 = load ptr, ptr %3, align 8
  %5 = getelementptr inbounds %class.DfgVertex, ptr %4, i32 0, i32 6
  call void @llvm.memcpy.p0.p0.i64(ptr align 2 %2, ptr align 8 %5, i64 2, i1 false)
  %6 = getelementptr inbounds %class.VDfgType, ptr %2, i32 0, i32 0
  %7 = load i16, ptr %6, align 2
  ret i16 %7
}

; Function Attrs: mustprogress nounwind uwtable
define linkonce_odr dso_local noundef zeroext i1 @_ZN9DfgVertex15privateTypeTestI12DfgVarPackedEEbPKS_(ptr noundef %0) #4 comdat align 2 {
  %2 = alloca ptr, align 8
  %3 = alloca %class.VDfgType, align 2
  store ptr %0, ptr %2, align 8
  %4 = load ptr, ptr %2, align 8
  %5 = call i16 @_ZNK9DfgVertex4typeEv(ptr noundef nonnull align 8 dereferenceable(72) %4)
  %6 = getelementptr inbounds %class.VDfgType, ptr %3, i32 0, i32 0
  store i16 %5, ptr %6, align 2
  %7 = getelementptr inbounds %class.VDfgType, ptr %3, i32 0, i32 0
  %8 = load i16, ptr %7, align 2
  %9 = call noundef zeroext i1 @_Zeq8VDfgTypeNS_2enE(i16 %8, i16 noundef zeroext 153)
  ret i1 %9
}

; Function Attrs: mustprogress uwtable
define linkonce_odr dso_local noundef zeroext i1 @_ZNK9DfgVertex2isI12DfgVarPackedEEbv(ptr noundef nonnull align 8 dereferenceable(72) %0) #5 comdat align 2 {
  %2 = alloca ptr, align 8
  store ptr %0, ptr %2, align 8
  %3 = load ptr, ptr %2, align 8
  %4 = call noundef zeroext i1 @_ZN9DfgVertex15privateTypeTestI12DfgVarPackedEEbPKS_(ptr noundef %3)
  ret i1 %4
}

; Function Attrs: mustprogress nounwind uwtable
define linkonce_odr dso_local noundef zeroext i1 @_ZNK6AstVar4isScEv(ptr noundef nonnull align 8 dereferenceable(280) %0) #4 comdat align 2 {
  %2 = alloca ptr, align 8
  store ptr %0, ptr %2, align 8
  %3 = load ptr, ptr %2, align 8
  %4 = getelementptr inbounds %class.AstVar, ptr %3, i32 0, i32 11
  %5 = load i64, ptr %4, align 4
  %6 = lshr i64 %5, 4
  %7 = and i64 %6, 1
  %8 = trunc i64 %7 to i1
  ret i1 %8
}

; Function Attrs: mustprogress nounwind uwtable
define linkonce_odr dso_local noundef ptr @_ZNK12DfgVertexVar4varpEv(ptr noundef nonnull align 8 dereferenceable(99) %0) #4 comdat align 2 {
  %2 = alloca ptr, align 8
  store ptr %0, ptr %2, align 8
  %3 = load ptr, ptr %2, align 8
  %4 = getelementptr inbounds %class.DfgVertexVar, ptr %3, i32 0, i32 1
  %5 = load ptr, ptr %4, align 8
  ret ptr %5
}

; Function Attrs: mustprogress uwtable
define linkonce_odr dso_local noundef ptr @_ZN9DfgVertex4castI12DfgVarPackedEEPT_v(ptr noundef nonnull align 8 dereferenceable(72) %0) #5 comdat align 2 {
  %2 = alloca ptr, align 8
  store ptr %0, ptr %2, align 8
  %3 = load ptr, ptr %2, align 8
  %4 = call noundef zeroext i1 @_ZNK9DfgVertex2isI12DfgVarPackedEEbv(ptr noundef nonnull align 8 dereferenceable(72) %3)
  br i1 %4, label %5, label %6

5:                                                ; preds = %1
  br label %7

6:                                                ; preds = %1
  br label %7

7:                                                ; preds = %6, %5
  %8 = phi ptr [ %3, %5 ], [ null, %6 ]
  ret ptr %8
}

; Function Attrs: mustprogress nounwind uwtable
define linkonce_odr dso_local noundef ptr @_ZNK7DfgEdge5sinkpEv(ptr noundef nonnull align 8 dereferenceable(32) %0) #4 comdat align 2 {
  %2 = alloca ptr, align 8
  store ptr %0, ptr %2, align 8
  %3 = load ptr, ptr %2, align 8
  %4 = getelementptr inbounds %class.DfgEdge, ptr %3, i32 0, i32 3
  %5 = load ptr, ptr %4, align 8
  ret ptr %5
}

; Function Attrs: mustprogress uwtable
define internal void @"_ZZN11V3DfgPasses10inlineVarsER8DfgGraphENK3$_0clER7DfgEdge"(ptr noundef nonnull align 8 dereferenceable(8) %0, ptr noundef nonnull align 8 dereferenceable(32) %1) #5 align 2 {
  %3 = alloca ptr, align 8
  %4 = alloca ptr, align 8
  %5 = alloca ptr, align 8
  store ptr %0, ptr %3, align 8
  store ptr %1, ptr %4, align 8
  %6 = load ptr, ptr %3, align 8
  %7 = load ptr, ptr %4, align 8
  %8 = call noundef ptr @_ZNK7DfgEdge5sinkpEv(ptr noundef nonnull align 8 dereferenceable(32) %7)
  %9 = call noundef ptr @_ZN9DfgVertex4castI12DfgVarPackedEEPT_v(ptr noundef nonnull align 8 dereferenceable(72) %8)
  store ptr %9, ptr %5, align 8
  %10 = load ptr, ptr %5, align 8
  %11 = icmp ne ptr %10, null
  br i1 %11, label %12, label %18

12:                                               ; preds = %2
  %13 = load ptr, ptr %5, align 8
  %14 = call noundef ptr @_ZNK12DfgVertexVar4varpEv(ptr noundef nonnull align 8 dereferenceable(99) %13)
  %15 = call noundef zeroext i1 @_ZNK6AstVar4isScEv(ptr noundef nonnull align 8 dereferenceable(280) %14)
  br i1 %15, label %16, label %17

16:                                               ; preds = %12
  br label %22

17:                                               ; preds = %12
  br label %18

18:                                               ; preds = %17, %2
  %19 = load ptr, ptr %4, align 8
  %20 = getelementptr inbounds %class.anon.155, ptr %6, i32 0, i32 0
  %21 = load ptr, ptr %20, align 8
  call void @_ZN7DfgEdge12relinkSourceEP9DfgVertex(ptr noundef nonnull align 8 dereferenceable(32) %19, ptr noundef %21)
  br label %22

22:                                               ; preds = %18, %16
  ret void
}

; Function Attrs: mustprogress nounwind uwtable
define linkonce_odr dso_local noundef ptr @_ZNKSt9_Any_data9_M_accessEv(ptr noundef nonnull align 8 dereferenceable(16) %0) #4 comdat align 2 {
  %2 = alloca ptr, align 8
  store ptr %0, ptr %2, align 8
  %3 = load ptr, ptr %2, align 8
  %4 = getelementptr inbounds [16 x i8], ptr %3, i64 0, i64 0
  ret ptr %4
}

; Function Attrs: mustprogress uwtable
define internal void @"_ZSt13__invoke_implIvRZN11V3DfgPasses10inlineVarsER8DfgGraphE3$_0JR7DfgEdgeEET_St14__invoke_otherOT0_DpOT1_"(ptr noundef nonnull align 8 dereferenceable(8) %0, ptr noundef nonnull align 8 dereferenceable(32) %1) #5 {
  %3 = alloca ptr, align 8
  %4 = alloca ptr, align 8
  store ptr %0, ptr %3, align 8
  store ptr %1, ptr %4, align 8
  %5 = load ptr, ptr %3, align 8
  %6 = load ptr, ptr %4, align 8
  call void @"_ZZN11V3DfgPasses10inlineVarsER8DfgGraphENK3$_0clER7DfgEdge"(ptr noundef nonnull align 8 dereferenceable(8) %5, ptr noundef nonnull align 8 dereferenceable(32) %6)
  ret void
}

; Function Attrs: mustprogress nounwind uwtable
define internal noundef nonnull align 8 dereferenceable(8) ptr @"_ZNKSt9_Any_data9_M_accessIZN11V3DfgPasses10inlineVarsER8DfgGraphE3$_0EERKT_v"(ptr noundef nonnull align 8 dereferenceable(16) %0) #4 align 2 {
  %2 = alloca ptr, align 8
  store ptr %0, ptr %2, align 8
  %3 = load ptr, ptr %2, align 8
  %4 = call noundef ptr @_ZNKSt9_Any_data9_M_accessEv(ptr noundef nonnull align 8 dereferenceable(16) %3) #3
  ret ptr %4
}

; Function Attrs: mustprogress uwtable
define internal void @"_ZSt10__invoke_rIvRZN11V3DfgPasses10inlineVarsER8DfgGraphE3$_0JR7DfgEdgeEENSt9enable_ifIX16is_invocable_r_vIT_T0_DpT1_EES8_E4typeEOS9_DpOSA_"(ptr noundef nonnull align 8 dereferenceable(8) %0, ptr noundef nonnull align 8 dereferenceable(32) %1) #5 {
  %3 = alloca ptr, align 8
  %4 = alloca ptr, align 8
  store ptr %0, ptr %3, align 8
  store ptr %1, ptr %4, align 8
  %5 = load ptr, ptr %3, align 8
  %6 = load ptr, ptr %4, align 8
  call void @"_ZSt13__invoke_implIvRZN11V3DfgPasses10inlineVarsER8DfgGraphE3$_0JR7DfgEdgeEET_St14__invoke_otherOT0_DpOT1_"(ptr noundef nonnull align 8 dereferenceable(8) %5, ptr noundef nonnull align 8 dereferenceable(32) %6)
  ret void
}

; Function Attrs: mustprogress nounwind uwtable
define internal noundef ptr @"_ZNSt14_Function_base13_Base_managerIZN11V3DfgPasses10inlineVarsER8DfgGraphE3$_0E14_M_get_pointerERKSt9_Any_data"(ptr noundef nonnull align 8 dereferenceable(16) %0) #4 align 2 {
  %2 = alloca ptr, align 8
  %3 = alloca ptr, align 8
  store ptr %0, ptr %2, align 8
  %4 = load ptr, ptr %2, align 8
  %5 = call noundef nonnull align 8 dereferenceable(8) ptr @"_ZNKSt9_Any_data9_M_accessIZN11V3DfgPasses10inlineVarsER8DfgGraphE3$_0EERKT_v"(ptr noundef nonnull align 8 dereferenceable(16) %4) #3
  store ptr %5, ptr %3, align 8
  %6 = load ptr, ptr %3, align 8
  ret ptr %6
}

; Function Attrs: mustprogress uwtable
define internal void @"_ZNSt17_Function_handlerIFvR7DfgEdgeEZN11V3DfgPasses10inlineVarsER8DfgGraphE3$_0E9_M_invokeERKSt9_Any_dataS1_"(ptr noundef nonnull align 8 dereferenceable(16) %0, ptr noundef nonnull align 8 dereferenceable(32) %1) #5 align 2 {
  %3 = alloca ptr, align 8
  %4 = alloca ptr, align 8
  store ptr %0, ptr %3, align 8
  store ptr %1, ptr %4, align 8
  %5 = load ptr, ptr %3, align 8
  %6 = call noundef ptr @"_ZNSt14_Function_base13_Base_managerIZN11V3DfgPasses10inlineVarsER8DfgGraphE3$_0E14_M_get_pointerERKSt9_Any_data"(ptr noundef nonnull align 8 dereferenceable(16) %5) #3
  %7 = load ptr, ptr %4, align 8
  call void @"_ZSt10__invoke_rIvRZN11V3DfgPasses10inlineVarsER8DfgGraphE3$_0JR7DfgEdgeEENSt9enable_ifIX16is_invocable_r_vIT_T0_DpT1_EES8_E4typeEOS9_DpOSA_"(ptr noundef nonnull align 8 dereferenceable(8) %6, ptr noundef nonnull align 8 dereferenceable(32) %7)
  ret void
}