; Function Attrs: mustprogress uwtable
define internal void @"_ZNSt17_Function_handlerIFvR7DfgEdgeEZN11V3DfgPasses10inlineVarsER8DfgGraphE3$_0E9_M_invokeERKSt9_Any_dataS1_"(ptr nocapture noundef nonnull readonly align 8 dereferenceable(16) %0, ptr noundef nonnull align 8 dereferenceable(32) %1) #4 align 2 {
  %.val = load ptr, ptr %0, align 8
  %3 = getelementptr inbounds i8, ptr %1, i64 24
  %4 = load ptr, ptr %3, align 8
  %5 = getelementptr inbounds i8, ptr %4, i64 56
  %.sroa.0.0.copyload.i.i.i.i.i.i.i = load i16, ptr %5, align 8
  %6 = icmp ne i16 %.sroa.0.0.copyload.i.i.i.i.i.i.i, 153
  %.not1.i.i.i = icmp eq ptr %4, null
  %.not.i.i.i = or i1 %.not1.i.i.i, %6
  br i1 %.not.i.i.i, label %13, label %7

7:                                                ; preds = %2
  %8 = getelementptr inbounds i8, ptr %4, i64 88
  %9 = load ptr, ptr %8, align 8
  %10 = getelementptr inbounds i8, ptr %9, i64 260
  %11 = load i64, ptr %10, align 4
  %12 = and i64 %11, 16
  %.not2.i.i.i = icmp eq i64 %12, 0
  br i1 %.not2.i.i.i, label %13, label %"_ZSt10__invoke_rIvRZN11V3DfgPasses10inlineVarsER8DfgGraphE3$_0JR7DfgEdgeEENSt9enable_ifIX16is_invocable_r_vIT_T0_DpT1_EES8_E4typeEOS9_DpOSA_.exit"

13:                                               ; preds = %7, %2
  tail call void @_ZN7DfgEdge12relinkSourceEP9DfgVertex(ptr noundef nonnull align 8 dereferenceable(32) %1, ptr noundef %.val)
  br label %"_ZSt10__invoke_rIvRZN11V3DfgPasses10inlineVarsER8DfgGraphE3$_0JR7DfgEdgeEENSt9enable_ifIX16is_invocable_r_vIT_T0_DpT1_EES8_E4typeEOS9_DpOSA_.exit"

"_ZSt10__invoke_rIvRZN11V3DfgPasses10inlineVarsER8DfgGraphE3$_0JR7DfgEdgeEENSt9enable_ifIX16is_invocable_r_vIT_T0_DpT1_EES8_E4typeEOS9_DpOSA_.exit": ; preds = %7, %13
  ret void
}